target datalayout = "e-m:e-p270:32:32-p271:32:32-p272:64:64-i64:64-i128:128-f80:128-n8:16:32:64-S128"
target triple = "x86_64-pc-linux-gnu"

%struct.dt_gui_presets_edit_dialog_t = type { ptr, ptr, ptr, ptr, i32, ptr, ptr, ptr, ptr, ptr, ptr, ptr, ptr, ptr, ptr, ptr, ptr, ptr, ptr, ptr, ptr, ptr, ptr, ptr, ptr, i32, [5 x ptr], ptr, ptr }

; Function Attrs: nounwind uwtable
define internal void @_check_buttons_activated(ptr noundef %0, ptr noundef %1) #0 {
  %3 = alloca ptr, align 8
  %4 = alloca ptr, align 8
  store ptr %0, ptr %3, align 8, !tbaa !209
  store ptr %1, ptr %4, align 8, !tbaa !87
  %5 = load ptr, ptr %4, align 8, !tbaa !87
  %6 = getelementptr inbounds nuw %struct.dt_gui_presets_edit_dialog_t, ptr %5, i32 0, i32 8
  %7 = load ptr, ptr %6, align 8, !tbaa !120
  %8 = call i64 @gtk_toggle_button_get_type() #14
  %9 = call ptr @g_type_check_instance_cast(ptr noundef %7, i64 noundef %8)
  %10 = call i32 @gtk_toggle_button_get_active(ptr noundef %9)
  %11 = icmp ne i32 %10, 0
  br i1 %11, label %20, label %12

12:                                               ; preds = %2
  %13 = load ptr, ptr %4, align 8, !tbaa !87
  %14 = getelementptr inbounds nuw %struct.dt_gui_presets_edit_dialog_t, ptr %13, i32 0, i32 9
  %15 = load ptr, ptr %14, align 8, !tbaa !121
  %16 = call i64 @gtk_toggle_button_get_type() #14
  %17 = call ptr @g_type_check_instance_cast(ptr noundef %15, i64 noundef %16)
  %18 = call i32 @gtk_toggle_button_get_active(ptr noundef %17)
  %19 = icmp ne i32 %18, 0
  br i1 %19, label %20, label %41

20:                                               ; preds = %12, %2
  %21 = load ptr, ptr %4, align 8, !tbaa !87
  %22 = getelementptr inbounds nuw %struct.dt_gui_presets_edit_dialog_t, ptr %21, i32 0, i32 10
  %23 = load ptr, ptr %22, align 8, !tbaa !122
  %24 = call i64 @gtk_widget_get_type() #14
  %25 = call ptr @g_type_check_instance_cast(ptr noundef %23, i64 noundef %24)
  call void @gtk_widget_set_visible(ptr noundef %25, i32 noundef 1)
  %26 = load ptr, ptr %4, align 8, !tbaa !87
  %27 = getelementptr inbounds nuw %struct.dt_gui_presets_edit_dialog_t, ptr %26, i32 0, i32 10
  %28 = load ptr, ptr %27, align 8, !tbaa !122
  %29 = call i64 @gtk_widget_get_type() #14
  %30 = call ptr @g_type_check_instance_cast(ptr noundef %28, i64 noundef %29)
  call void @gtk_widget_set_no_show_all(ptr noundef %30, i32 noundef 0)
  %31 = load ptr, ptr %4, align 8, !tbaa !87
  %32 = getelementptr inbounds nuw %struct.dt_gui_presets_edit_dialog_t, ptr %31, i32 0, i32 10
  %33 = load ptr, ptr %32, align 8, !tbaa !122
  %34 = call i64 @gtk_widget_get_type() #14
  %35 = call ptr @g_type_check_instance_cast(ptr noundef %33, i64 noundef %34)
  call void @gtk_widget_show_all(ptr noundef %35)
  %36 = load ptr, ptr %4, align 8, !tbaa !87
  %37 = getelementptr inbounds nuw %struct.dt_gui_presets_edit_dialog_t, ptr %36, i32 0, i32 10
  %38 = load ptr, ptr %37, align 8, !tbaa !122
  %39 = call i64 @gtk_widget_get_type() #14
  %40 = call ptr @g_type_check_instance_cast(ptr noundef %38, i64 noundef %39)
  call void @gtk_widget_set_no_show_all(ptr noundef %40, i32 noundef 1)
  br label %47

41:                                               ; preds = %12
  %42 = load ptr, ptr %4, align 8, !tbaa !87
  %43 = getelementptr inbounds nuw %struct.dt_gui_presets_edit_dialog_t, ptr %42, i32 0, i32 10
  %44 = load ptr, ptr %43, align 8, !tbaa !122
  %45 = call i64 @gtk_widget_get_type() #14
  %46 = call ptr @g_type_check_instance_cast(ptr noundef %44, i64 noundef %45)
  call void @gtk_widget_set_visible(ptr noundef %46, i32 noundef 0)
  br label %47

47:                                               ; preds = %41, %20
  ret void
}