; Function Attrs: nounwind uwtable
define internal void @_check_buttons_activated(ptr readnone captures(none) %0, ptr noundef readonly captures(none) %1) #0 {
  %3 = getelementptr inbounds nuw i8, ptr %1, i64 64
  %4 = load ptr, ptr %3, align 8, !tbaa !92
  %5 = tail call i64 @gtk_toggle_button_get_type() #20
  %6 = tail call ptr @g_type_check_instance_cast(ptr noundef %4, i64 noundef %5) #16
  %7 = tail call i32 @gtk_toggle_button_get_active(ptr noundef %6) #16
  %.not = icmp eq i32 %7, 0
  br i1 %.not, label %8, label %13

8:                                                ; preds = %2
  %9 = getelementptr inbounds nuw i8, ptr %1, i64 72
  %10 = load ptr, ptr %9, align 8, !tbaa !93
  %11 = tail call ptr @g_type_check_instance_cast(ptr noundef %10, i64 noundef %5) #16
  %12 = tail call i32 @gtk_toggle_button_get_active(ptr noundef %11) #16
  %.not7 = icmp eq i32 %12, 0
  br i1 %.not7, label %24, label %13

13:                                               ; preds = %8, %2
  %14 = getelementptr inbounds nuw i8, ptr %1, i64 80
  %15 = load ptr, ptr %14, align 8, !tbaa !94
  %16 = tail call i64 @gtk_widget_get_type() #20
  %17 = tail call ptr @g_type_check_instance_cast(ptr noundef %15, i64 noundef %16) #16
  tail call void @gtk_widget_set_visible(ptr noundef %17, i32 noundef 1) #16
  %18 = load ptr, ptr %14, align 8, !tbaa !94
  %19 = tail call ptr @g_type_check_instance_cast(ptr noundef %18, i64 noundef %16) #16
  tail call void @gtk_widget_set_no_show_all(ptr noundef %19, i32 noundef 0) #16
  %20 = load ptr, ptr %14, align 8, !tbaa !94
  %21 = tail call ptr @g_type_check_instance_cast(ptr noundef %20, i64 noundef %16) #16
  tail call void @gtk_widget_show_all(ptr noundef %21) #16
  %22 = load ptr, ptr %14, align 8, !tbaa !94
  %23 = tail call ptr @g_type_check_instance_cast(ptr noundef %22, i64 noundef %16) #16
  tail call void @gtk_widget_set_no_show_all(ptr noundef %23, i32 noundef 1) #16
  br label %29

24:                                               ; preds = %8
  %25 = getelementptr inbounds nuw i8, ptr %1, i64 80
  %26 = load ptr, ptr %25, align 8, !tbaa !94
  %27 = tail call i64 @gtk_widget_get_type() #20
  %28 = tail call ptr @g_type_check_instance_cast(ptr noundef %26, i64 noundef %27) #16
  tail call void @gtk_widget_set_visible(ptr noundef %28, i32 noundef 0) #16
  br label %29

29:                                               ; preds = %24, %13
  ret void
}